target datalayout = "e-m:e-p270:32:32-p271:32:32-p272:64:64-i64:64-i128:128-f80:128-n8:16:32:64-S128"
target triple = "x86_64-pc-linux-gnu"

%union.EX_STYPE = type { ptr }
%struct.Exnode_s = type { i32, i32, i32, ptr, %union.anon.1, %union.Exdata_u, i32 }
%union.anon.1 = type { ptr }
%union.Exdata_u = type { %struct.anon.5 }
%struct.anon.5 = type { ptr, ptr, ptr, ptr }
%struct.Expr_s = type { ptr, ptr, [10 x ptr], ptr, ptr, ptr, %struct._dtdisc_s, ptr, ptr, ptr, %struct.agxbuf, %union.EX_STYPE, %struct.Exid_s, [512 x i8], ptr, i32, i32, i32, i32, i64, i32, i32 }
%struct._dtdisc_s = type { i32, i32, i32, ptr, ptr, ptr }
%struct.agxbuf = type { %union.anon }
%union.anon = type { %struct.anon }
%struct.anon = type { ptr, i64, i64, [7 x i8], i8 }
%struct.Exid_s = type { %struct._dtlink_s, i64, i64, i64, i64, i64, ptr, ptr, i64, [32 x i8] }
%struct._dtlink_s = type { ptr, %union.anon.0 }
%union.anon.0 = type { ptr }
%struct.anon.3 = type { ptr, ptr, ptr }
%struct.Exdisc_s = type { i64, i64, ptr, ptr, ptr, ptr, ptr, ptr, ptr, ptr, ptr, ptr, ptr, ptr, ptr, ptr, ptr, ptr, ptr }
%struct.anon.2 = type { %union.EX_STYPE, ptr }

@typename = internal global [6 x ptr] [ptr @.str.57, ptr @.str.58, ptr @.str.59, ptr @.str.60, ptr @.str.61, ptr @.str.62], align 16
@.str.5 = private unnamed_addr constant [3 x i8] c"%g\00", align 1
@.str.6 = private unnamed_addr constant [5 x i8] c"%lld\00", align 1
@.str.92 = private unnamed_addr constant [28 x i8] c"cannot convert %s to STRING\00", align 1
@.str.93 = private unnamed_addr constant [37 x i8] c"cannot convert constant %s to STRING\00", align 1
@.str.94 = private unnamed_addr constant [33 x i8] c"internal error: %d: unknown type\00", align 1

; Function Attrs: nounwind uwtable
define ptr @extypename(ptr noundef %0, i32 noundef %1) #0 {
  %3 = alloca ptr, align 8
  %4 = alloca ptr, align 8
  %5 = alloca i32, align 4
  store ptr %0, ptr %4, align 8
  store i32 %1, ptr %5, align 4
  %6 = load i32, ptr %5, align 4
  %7 = icmp sgt i32 %6, 258
  br i1 %7, label %8, label %24

8:                                                ; preds = %2
  %9 = load i32, ptr %5, align 4
  %10 = icmp sge i32 %9, 259
  br i1 %10, label %11, label %18

11:                                               ; preds = %8
  %12 = load i32, ptr %5, align 4
  %13 = icmp sle i32 %12, 263
  br i1 %13, label %14, label %18

14:                                               ; preds = %11
  %15 = load i32, ptr %5, align 4
  %16 = sub nsw i32 %15, 259
  %17 = add nsw i32 %16, 1
  br label %19

18:                                               ; preds = %11, %8
  br label %19

19:                                               ; preds = %18, %14
  %20 = phi i32 [ %17, %14 ], [ 0, %18 ]
  %21 = sext i32 %20 to i64
  %22 = getelementptr inbounds [6 x ptr], ptr @typename, i64 0, i64 %21
  %23 = load ptr, ptr %22, align 8
  store ptr %23, ptr %3, align 8
  br label %32

24:                                               ; preds = %2
  %25 = load ptr, ptr %4, align 8
  %26 = getelementptr inbounds %struct.Expr_s, ptr %25, i32 0, i32 7
  %27 = load ptr, ptr %26, align 8
  %28 = getelementptr inbounds %struct.Exdisc_s, ptr %27, i32 0, i32 9
  %29 = load ptr, ptr %28, align 8
  %30 = load i32, ptr %5, align 4
  %31 = call ptr %29(i32 noundef %30)
  store ptr %31, ptr %3, align 8
  br label %32

32:                                               ; preds = %24, %19
  %33 = load ptr, ptr %3, align 8
  ret ptr %33
}

; Function Attrs: nounwind uwtable
define ptr @exnewnode(ptr noundef %0, i32 noundef %1, i32 noundef %2, i32 noundef %3, ptr noundef %4, ptr noundef %5) #0 {
  %7 = alloca ptr, align 8
  %8 = alloca i32, align 4
  %9 = alloca i32, align 4
  %10 = alloca i32, align 4
  %11 = alloca ptr, align 8
  %12 = alloca ptr, align 8
  %13 = alloca ptr, align 8
  %14 = alloca %struct.Exnode_s, align 8
  store ptr %0, ptr %7, align 8
  store i32 %1, ptr %8, align 4
  store i32 %2, ptr %9, align 4
  store i32 %3, ptr %10, align 4
  store ptr %4, ptr %11, align 8
  store ptr %5, ptr %12, align 8
  %15 = load ptr, ptr %7, align 8
  %16 = getelementptr inbounds %struct.Expr_s, ptr %15, i32 0, i32 3
  %17 = load ptr, ptr %16, align 8
  %18 = call ptr @vmalloc(ptr noundef %17, i64 noundef 72)
  store ptr %18, ptr %13, align 8
  %19 = load ptr, ptr %13, align 8
  call void @llvm.memset.p0.i64(ptr align 8 %14, i8 0, i64 72, i1 false)
  call void @llvm.memcpy.p0.p0.i64(ptr align 8 %19, ptr align 8 %14, i64 72, i1 false)
  %20 = load i32, ptr %8, align 4
  %21 = load ptr, ptr %13, align 8
  %22 = getelementptr inbounds %struct.Exnode_s, ptr %21, i32 0, i32 1
  store i32 %20, ptr %22, align 4
  %23 = load i32, ptr %10, align 4
  %24 = load ptr, ptr %13, align 8
  %25 = getelementptr inbounds %struct.Exnode_s, ptr %24, i32 0, i32 0
  store i32 %23, ptr %25, align 8
  %26 = load i32, ptr %9, align 4
  %27 = load ptr, ptr %13, align 8
  %28 = getelementptr inbounds %struct.Exnode_s, ptr %27, i32 0, i32 2
  store i32 %26, ptr %28, align 8
  %29 = load ptr, ptr %13, align 8
  %30 = getelementptr inbounds %struct.Exnode_s, ptr %29, i32 0, i32 3
  store ptr null, ptr %30, align 8
  %31 = load ptr, ptr %11, align 8
  %32 = load ptr, ptr %13, align 8
  %33 = getelementptr inbounds %struct.Exnode_s, ptr %32, i32 0, i32 5
  %34 = getelementptr inbounds %struct.anon.3, ptr %33, i32 0, i32 0
  store ptr %31, ptr %34, align 8
  %35 = load ptr, ptr %12, align 8
  %36 = load ptr, ptr %13, align 8
  %37 = getelementptr inbounds %struct.Exnode_s, ptr %36, i32 0, i32 5
  %38 = getelementptr inbounds %struct.anon.3, ptr %37, i32 0, i32 1
  store ptr %35, ptr %38, align 8
  %39 = load ptr, ptr %13, align 8
  ret ptr %39
}

; Function Attrs: nounwind uwtable
define internal ptr @exstringOf(ptr noundef %0, ptr noundef %1) #0 {
  %3 = alloca ptr, align 8
  %4 = alloca ptr, align 8
  %5 = alloca ptr, align 8
  %6 = alloca i32, align 4
  %7 = alloca i32, align 4
  store ptr %0, ptr %4, align 8
  store ptr %1, ptr %5, align 8
  %8 = load ptr, ptr %5, align 8
  %9 = getelementptr inbounds %struct.Exnode_s, ptr %8, i32 0, i32 0
  %10 = load i32, ptr %9, align 8
  store i32 %10, ptr %6, align 4
  store i32 0, ptr %7, align 4
  %11 = load i32, ptr %6, align 4
  %12 = icmp ne i32 %11, 0
  br i1 %12, label %17, label %13

13:                                               ; preds = %2
  %14 = load ptr, ptr %5, align 8
  %15 = getelementptr inbounds %struct.Exnode_s, ptr %14, i32 0, i32 0
  store i32 263, ptr %15, align 8
  %16 = load ptr, ptr %5, align 8
  store ptr %16, ptr %3, align 8
  br label %118

17:                                               ; preds = %2
  %18 = load i32, ptr %6, align 4
  %19 = icmp sgt i32 %18, 258
  br i1 %19, label %31, label %20

20:                                               ; preds = %17
  %21 = load ptr, ptr %4, align 8
  %22 = getelementptr inbounds %struct.Expr_s, ptr %21, i32 0, i32 7
  %23 = load ptr, ptr %22, align 8
  %24 = getelementptr inbounds %struct.Exdisc_s, ptr %23, i32 0, i32 10
  %25 = load ptr, ptr %24, align 8
  %26 = icmp ne ptr %25, null
  br i1 %26, label %31, label %27

27:                                               ; preds = %20
  %28 = load ptr, ptr %4, align 8
  %29 = load i32, ptr %6, align 4
  %30 = call ptr @extypename(ptr noundef %28, i32 noundef %29)
  call void (ptr, ...) @exerror(ptr noundef @.str.92, ptr noundef %30)
  br label %31

31:                                               ; preds = %27, %20, %17
  %32 = load ptr, ptr %5, align 8
  %33 = getelementptr inbounds %struct.Exnode_s, ptr %32, i32 0, i32 1
  %34 = load i32, ptr %33, align 4
  %35 = icmp ne i32 %34, 271
  br i1 %35, label %36, label %64

36:                                               ; preds = %31
  %37 = load i32, ptr %6, align 4
  %38 = icmp sgt i32 %37, 258
  br i1 %38, label %54, label %39

39:                                               ; preds = %36
  %40 = load ptr, ptr %4, align 8
  %41 = getelementptr inbounds %struct.Expr_s, ptr %40, i32 0, i32 7
  %42 = load ptr, ptr %41, align 8
  %43 = getelementptr inbounds %struct.Exdisc_s, ptr %42, i32 0, i32 10
  %44 = load ptr, ptr %43, align 8
  %45 = load ptr, ptr %4, align 8
  %46 = load ptr, ptr %5, align 8
  %47 = call i32 %44(ptr noundef %45, ptr noundef %46, i32 noundef 1)
  %48 = icmp slt i32 %47, 0
  br i1 %48, label %49, label %53

49:                                               ; preds = %39
  %50 = load ptr, ptr %4, align 8
  %51 = load i32, ptr %6, align 4
  %52 = call ptr @extypename(ptr noundef %50, i32 noundef %51)
  call void (ptr, ...) @exerror(ptr noundef @.str.92, ptr noundef %52)
  br label %53

53:                                               ; preds = %49, %39
  store i32 322, ptr %7, align 4
  br label %59

54:                                               ; preds = %36
  %55 = load i32, ptr %6, align 4
  switch i32 %55, label %58 [
    i32 262, label %56
    i32 259, label %57
  ]

56:                                               ; preds = %54
  store i32 309, ptr %7, align 4
  br label %58

57:                                               ; preds = %54
  store i32 311, ptr %7, align 4
  br label %58

58:                                               ; preds = %57, %56, %54
  br label %59

59:                                               ; preds = %58, %53
  %60 = load ptr, ptr %4, align 8
  %61 = load i32, ptr %7, align 4
  %62 = load ptr, ptr %5, align 8
  %63 = call ptr @exnewnode(ptr noundef %60, i32 noundef %61, i32 noundef 0, i32 noundef 263, ptr noundef %62, ptr noundef null)
  store ptr %63, ptr %5, align 8
  br label %114

64:                                               ; preds = %31
  %65 = load i32, ptr %6, align 4
  %66 = icmp sgt i32 %65, 258
  br i1 %66, label %84, label %67

67:                                               ; preds = %64
  %68 = load ptr, ptr %4, align 8
  %69 = getelementptr inbounds %struct.Expr_s, ptr %68, i32 0, i32 7
  %70 = load ptr, ptr %69, align 8
  %71 = getelementptr inbounds %struct.Exdisc_s, ptr %70, i32 0, i32 10
  %72 = load ptr, ptr %71, align 8
  %73 = load ptr, ptr %4, align 8
  %74 = load ptr, ptr %5, align 8
  %75 = call i32 %72(ptr noundef %73, ptr noundef %74, i32 noundef 0)
  %76 = icmp slt i32 %75, 0
  br i1 %76, label %77, label %83

77:                                               ; preds = %67
  %78 = load ptr, ptr %4, align 8
  %79 = load ptr, ptr %5, align 8
  %80 = getelementptr inbounds %struct.Exnode_s, ptr %79, i32 0, i32 0
  %81 = load i32, ptr %80, align 8
  %82 = call ptr @extypename(ptr noundef %78, i32 noundef %81)
  call void (ptr, ...) @exerror(ptr noundef @.str.93, ptr noundef %82)
  br label %83

83:                                               ; preds = %77, %67
  br label %113

84:                                               ; preds = %64
  %85 = load i32, ptr %6, align 4
  switch i32 %85, label %110 [
    i32 262, label %86
    i32 259, label %98
  ]

86:                                               ; preds = %84
  %87 = load ptr, ptr %4, align 8
  %88 = getelementptr inbounds %struct.Expr_s, ptr %87, i32 0, i32 3
  %89 = load ptr, ptr %88, align 8
  %90 = load ptr, ptr %5, align 8
  %91 = getelementptr inbounds %struct.Exnode_s, ptr %90, i32 0, i32 5
  %92 = getelementptr inbounds %struct.anon.2, ptr %91, i32 0, i32 0
  %93 = load double, ptr %92, align 8
  %94 = call ptr (ptr, ptr, ...) @exprintf(ptr noundef %89, ptr noundef @.str.5, double noundef %93)
  %95 = load ptr, ptr %5, align 8
  %96 = getelementptr inbounds %struct.Exnode_s, ptr %95, i32 0, i32 5
  %97 = getelementptr inbounds %struct.anon.2, ptr %96, i32 0, i32 0
  store ptr %94, ptr %97, align 8
  br label %112

98:                                               ; preds = %84
  %99 = load ptr, ptr %4, align 8
  %100 = getelementptr inbounds %struct.Expr_s, ptr %99, i32 0, i32 3
  %101 = load ptr, ptr %100, align 8
  %102 = load ptr, ptr %5, align 8
  %103 = getelementptr inbounds %struct.Exnode_s, ptr %102, i32 0, i32 5
  %104 = getelementptr inbounds %struct.anon.2, ptr %103, i32 0, i32 0
  %105 = load i64, ptr %104, align 8
  %106 = call ptr (ptr, ptr, ...) @exprintf(ptr noundef %101, ptr noundef @.str.6, i64 noundef %105)
  %107 = load ptr, ptr %5, align 8
  %108 = getelementptr inbounds %struct.Exnode_s, ptr %107, i32 0, i32 5
  %109 = getelementptr inbounds %struct.anon.2, ptr %108, i32 0, i32 0
  store ptr %106, ptr %109, align 8
  br label %112

110:                                              ; preds = %84
  %111 = load i32, ptr %6, align 4
  call void (ptr, ...) @exerror(ptr noundef @.str.94, i32 noundef %111)
  br label %112

112:                                              ; preds = %110, %98, %86
  br label %113

113:                                              ; preds = %112, %83
  br label %114

114:                                              ; preds = %113, %59
  %115 = load ptr, ptr %5, align 8
  %116 = getelementptr inbounds %struct.Exnode_s, ptr %115, i32 0, i32 0
  store i32 263, ptr %116, align 8
  %117 = load ptr, ptr %5, align 8
  store ptr %117, ptr %3, align 8
  br label %118

118:                                              ; preds = %114, %13
  %119 = load ptr, ptr %3, align 8
  ret ptr %119
}

; Function Attrs: nounwind uwtable
define internal ptr @exprint(ptr noundef %0, ptr noundef %1, ptr noundef %2) #0 {
  %4 = alloca ptr, align 8
  %5 = alloca ptr, align 8
  %6 = alloca ptr, align 8
  %7 = alloca ptr, align 8
  %8 = alloca ptr, align 8
  store ptr %0, ptr %4, align 8
  store ptr %1, ptr %5, align 8
  store ptr %2, ptr %6, align 8
  %9 = load ptr, ptr %6, align 8
  store ptr %9, ptr %7, align 8
  br label %10

10:                                               ; preds = %31, %3
  %11 = load ptr, ptr %7, align 8
  %12 = icmp ne ptr %11, null
  br i1 %12, label %13, label %36

13:                                               ; preds = %10
  %14 = load ptr, ptr %7, align 8
  %15 = getelementptr inbounds %struct.Exnode_s, ptr %14, i32 0, i32 5
  %16 = getelementptr inbounds %struct.anon.3, ptr %15, i32 0, i32 0
  %17 = load ptr, ptr %16, align 8
  %18 = getelementptr inbounds %struct.Exnode_s, ptr %17, i32 0, i32 0
  %19 = load i32, ptr %18, align 8
  %20 = icmp ne i32 %19, 263
  br i1 %20, label %21, label %31

21:                                               ; preds = %13
  %22 = load ptr, ptr %4, align 8
  %23 = load ptr, ptr %7, align 8
  %24 = getelementptr inbounds %struct.Exnode_s, ptr %23, i32 0, i32 5
  %25 = getelementptr inbounds %struct.anon.3, ptr %24, i32 0, i32 0
  %26 = load ptr, ptr %25, align 8
  %27 = call ptr @exstringOf(ptr noundef %22, ptr noundef %26)
  %28 = load ptr, ptr %7, align 8
  %29 = getelementptr inbounds %struct.Exnode_s, ptr %28, i32 0, i32 5
  %30 = getelementptr inbounds %struct.anon.3, ptr %29, i32 0, i32 0
  store ptr %27, ptr %30, align 8
  br label %31

31:                                               ; preds = %21, %13
  %32 = load ptr, ptr %7, align 8
  %33 = getelementptr inbounds %struct.Exnode_s, ptr %32, i32 0, i32 5
  %34 = getelementptr inbounds %struct.anon.3, ptr %33, i32 0, i32 1
  %35 = load ptr, ptr %34, align 8
  store ptr %35, ptr %7, align 8
  br label %10

36:                                               ; preds = %10
  %37 = load ptr, ptr %4, align 8
  %38 = load ptr, ptr %5, align 8
  %39 = getelementptr inbounds %struct.Exid_s, ptr %38, i32 0, i32 2
  %40 = load i64, ptr %39, align 8
  %41 = trunc i64 %40 to i32
  %42 = load ptr, ptr %5, align 8
  %43 = getelementptr inbounds %struct.Exid_s, ptr %42, i32 0, i32 3
  %44 = load i64, ptr %43, align 8
  %45 = trunc i64 %44 to i32
  %46 = load ptr, ptr %6, align 8
  %47 = call ptr @exnewnode(ptr noundef %37, i32 noundef %41, i32 noundef 1, i32 noundef %45, ptr noundef %46, ptr noundef null)
  store ptr %47, ptr %8, align 8
  %48 = load ptr, ptr %8, align 8
  ret ptr %48
}