; Function Attrs: nounwind uwtable
define internal fastcc noundef ptr @exprint(ptr noundef %0, ptr noundef readonly captures(none) %1, ptr noundef %2) unnamed_addr #0 {
  %.not13 = icmp eq ptr %2, null
  br i1 %.not13, label %._crit_edge, label %.lr.ph

.lr.ph:                                           ; preds = %3
  %4 = getelementptr inbounds nuw i8, ptr %0, i64 160
  %5 = getelementptr inbounds nuw i8, ptr %0, i64 96
  br label %6

6:                                                ; preds = %.lr.ph, %67
  %.014 = phi ptr [ %2, %.lr.ph ], [ %69, %67 ]
  %7 = getelementptr inbounds nuw i8, ptr %.014, i64 32
  %8 = load ptr, ptr %7, align 8
  %9 = load i32, ptr %8, align 8
  switch i32 %9, label %10 [
    i32 263, label %67
    i32 0, label %exstringOf.exit
  ]

10:                                               ; preds = %6
  %11 = icmp sgt i32 %9, 258
  br i1 %11, label %.thread.i, label %12

12:                                               ; preds = %10
  %13 = load ptr, ptr %4, align 8
  %14 = getelementptr inbounds nuw i8, ptr %13, i64 80
  %15 = load ptr, ptr %14, align 8
  %.not38.i = icmp eq ptr %15, null
  br i1 %.not38.i, label %extypename.exit.i, label %19

extypename.exit.i:                                ; preds = %12
  %16 = getelementptr inbounds nuw i8, ptr %13, i64 72
  %17 = load ptr, ptr %16, align 8
  %18 = tail call ptr %17(i32 noundef %9) #22
  tail call void (ptr, ...) @exerror(ptr noundef nonnull @.str.92, ptr noundef %18) #22
  %.pre = load ptr, ptr %4, align 8
  %.phi.trans.insert = getelementptr inbounds nuw i8, ptr %.pre, i64 80
  %.pre15 = load ptr, ptr %.phi.trans.insert, align 8
  br label %19

19:                                               ; preds = %extypename.exit.i, %12
  %20 = phi ptr [ %.pre15, %extypename.exit.i ], [ %15, %12 ]
  %21 = getelementptr inbounds nuw i8, ptr %8, i64 4
  %22 = load i32, ptr %21, align 4
  %.not39.i = icmp eq i32 %22, 271
  br i1 %.not39.i, label %38, label %25

.thread.i:                                        ; preds = %10
  %23 = getelementptr inbounds nuw i8, ptr %8, i64 4
  %24 = load i32, ptr %23, align 4
  %.not3946.i = icmp eq i32 %24, 271
  br i1 %.not3946.i, label %.thread48.i, label %.thread47.i

25:                                               ; preds = %19
  %26 = tail call i32 %20(ptr noundef nonnull %0, ptr noundef nonnull %8, i32 noundef 1) #22
  %27 = icmp slt i32 %26, 0
  br i1 %27, label %extypename.exit43.i, label %32

extypename.exit43.i:                              ; preds = %25
  %28 = load ptr, ptr %4, align 8
  %29 = getelementptr inbounds nuw i8, ptr %28, i64 72
  %30 = load ptr, ptr %29, align 8
  %31 = tail call ptr %30(i32 noundef %9) #22
  tail call void (ptr, ...) @exerror(ptr noundef nonnull @.str.92, ptr noundef %31) #22
  br label %32

.thread47.i:                                      ; preds = %.thread.i
  %switch.selectcmp.i = icmp eq i32 %9, 259
  %switch.select.i = select i1 %switch.selectcmp.i, i32 311, i32 0
  %switch.selectcmp40.i = icmp eq i32 %9, 262
  %switch.select41.i = select i1 %switch.selectcmp40.i, i32 309, i32 %switch.select.i
  br label %32

32:                                               ; preds = %.thread47.i, %extypename.exit43.i, %25
  %.0.i = phi i32 [ 322, %extypename.exit43.i ], [ 322, %25 ], [ %switch.select41.i, %.thread47.i ]
  %33 = load ptr, ptr %5, align 8
  %34 = tail call ptr @vmalloc(ptr noundef %33, i64 noundef 72) #22
  %35 = getelementptr inbounds nuw i8, ptr %34, i64 8
  tail call void @llvm.memset.p0.i64(ptr noundef nonnull align 8 dereferenceable(64) %35, i8 0, i64 64, i1 false)
  %36 = getelementptr inbounds nuw i8, ptr %34, i64 4
  store i32 %.0.i, ptr %36, align 4
  store i32 263, ptr %34, align 8
  %37 = getelementptr inbounds nuw i8, ptr %34, i64 32
  store ptr %8, ptr %37, align 8
  br label %exstringOf.exit

38:                                               ; preds = %19
  %39 = tail call i32 %20(ptr noundef nonnull %0, ptr noundef nonnull %8, i32 noundef 0) #22
  %40 = icmp slt i32 %39, 0
  br i1 %40, label %41, label %exstringOf.exit

41:                                               ; preds = %38
  %42 = load i32, ptr %8, align 8
  %43 = icmp sgt i32 %42, 258
  br i1 %43, label %44, label %51

44:                                               ; preds = %41
  %45 = icmp samesign ult i32 %42, 264
  %46 = add nsw i32 %42, -258
  %47 = select i1 %45, i32 %46, i32 0
  %48 = zext nneg i32 %47 to i64
  %49 = getelementptr inbounds nuw [6 x ptr], ptr @typename, i64 0, i64 %48
  %50 = load ptr, ptr %49, align 8
  br label %extypename.exit45.i

51:                                               ; preds = %41
  %52 = load ptr, ptr %4, align 8
  %53 = getelementptr inbounds nuw i8, ptr %52, i64 72
  %54 = load ptr, ptr %53, align 8
  %55 = tail call ptr %54(i32 noundef %42) #22
  br label %extypename.exit45.i

extypename.exit45.i:                              ; preds = %51, %44
  %.0.i44.i = phi ptr [ %50, %44 ], [ %55, %51 ]
  tail call void (ptr, ...) @exerror(ptr noundef nonnull @.str.93, ptr noundef %.0.i44.i) #22
  br label %exstringOf.exit

.thread48.i:                                      ; preds = %.thread.i
  switch i32 %9, label %66 [
    i32 262, label %56
    i32 259, label %61
  ]

56:                                               ; preds = %.thread48.i
  %57 = load ptr, ptr %5, align 8
  %58 = getelementptr inbounds nuw i8, ptr %8, i64 32
  %59 = load double, ptr %58, align 8
  %60 = tail call ptr (ptr, ptr, ...) @exprintf(ptr noundef %57, ptr noundef nonnull @.str.5, double noundef %59)
  store ptr %60, ptr %58, align 8
  br label %exstringOf.exit

61:                                               ; preds = %.thread48.i
  %62 = load ptr, ptr %5, align 8
  %63 = getelementptr inbounds nuw i8, ptr %8, i64 32
  %64 = load i64, ptr %63, align 8
  %65 = tail call ptr (ptr, ptr, ...) @exprintf(ptr noundef %62, ptr noundef nonnull @.str.6, i64 noundef %64)
  store ptr %65, ptr %63, align 8
  br label %exstringOf.exit

66:                                               ; preds = %.thread48.i
  tail call void (ptr, ...) @exerror(ptr noundef nonnull @.str.94, i32 noundef %9) #22
  br label %exstringOf.exit

exstringOf.exit:                                  ; preds = %6, %32, %38, %extypename.exit45.i, %56, %61, %66
  %.036.sink.i = phi ptr [ %34, %32 ], [ %8, %66 ], [ %8, %61 ], [ %8, %56 ], [ %8, %extypename.exit45.i ], [ %8, %38 ], [ %8, %6 ]
  store i32 263, ptr %.036.sink.i, align 8
  store ptr %.036.sink.i, ptr %7, align 8
  br label %67

67:                                               ; preds = %6, %exstringOf.exit
  %68 = getelementptr inbounds nuw i8, ptr %.014, i64 40
  %69 = load ptr, ptr %68, align 8
  %.not = icmp eq ptr %69, null
  br i1 %.not, label %._crit_edge, label %6

._crit_edge:                                      ; preds = %67, %3
  %70 = getelementptr inbounds nuw i8, ptr %1, i64 24
  %71 = load i64, ptr %70, align 8
  %72 = trunc i64 %71 to i32
  %73 = getelementptr inbounds nuw i8, ptr %1, i64 32
  %74 = load i64, ptr %73, align 8
  %75 = trunc i64 %74 to i32
  %76 = getelementptr inbounds nuw i8, ptr %0, i64 96
  %77 = load ptr, ptr %76, align 8
  %78 = tail call ptr @vmalloc(ptr noundef %77, i64 noundef 72) #22
  %79 = getelementptr inbounds nuw i8, ptr %78, i64 8
  tail call void @llvm.memset.p0.i64(ptr noundef nonnull align 8 dereferenceable(64) %79, i8 0, i64 64, i1 false)
  %80 = getelementptr inbounds nuw i8, ptr %78, i64 4
  store i32 %72, ptr %80, align 4
  store i32 %75, ptr %78, align 8
  store i32 1, ptr %79, align 8
  %81 = getelementptr inbounds nuw i8, ptr %78, i64 32
  store ptr %2, ptr %81, align 8
  ret ptr %78
}